(lp0
S'http://argus-data.wldelft.nl/sites/jvspeijk/2013/c1/222_Aug.10/1376139602.Sat.Aug.10_13_00_02.GMT.2013.jvspeijk.c1.snap.jpg'
p1
aS'http://argus-data.wldelft.nl/sites/jvspeijk/2013/c1/107_Apr.17/1366200001.Wed.Apr.17_12_00_01.GMT.2013.jvspeijk.c1.snap.jpg'
p2
aS'http://argus-data.wldelft.nl/sites/jvspeijk/2013/c1/049_Feb.18/1361187002.Mon.Feb.18_11_30_02.GMT.2013.jvspeijk.c1.snap.jpg'
p3
aS'http://argus-data.wldelft.nl/sites/jvspeijk/2013/c2/160_Jun.09/1370770203.Sun.Jun.09_09_30_03.GMT.2013.jvspeijk.c2.snap.jpg'
p4
aS'http://argus-data.wldelft.nl/sites/jvspeijk/2013/c2/028_Jan.28/1359365402.Mon.Jan.28_09_30_02.GMT.2013.jvspeijk.c2.snap.jpg'
p5
aS'http://argus-data.wldelft.nl/sites/jvspeijk/2013/c2/108_Apr.18/1366272002.Thu.Apr.18_08_00_02.GMT.2013.jvspeijk.c2.snap.jpg'
p6
aS'http://argus-data.wldelft.nl/sites/jvspeijk/2013/c3/121_May.01/1367409604.Wed.May.01_12_00_04.GMT.2013.jvspeijk.c3.snap.jpg'
p7
aS'http://argus-data.wldelft.nl/sites/jvspeijk/2013/c3/149_May.29/1369818003.Wed.May.29_09_00_03.GMT.2013.jvspeijk.c3.snap.jpg'
p8
aS'http://argus-data.wldelft.nl/sites/jvspeijk/2013/c3/038_Feb.07/1360225803.Thu.Feb.07_08_30_03.GMT.2013.jvspeijk.c3.snap.jpg'
p9
aS'http://argus-data.wldelft.nl/sites/jvspeijk/2013/c4/029_Jan.29/1359462604.Tue.Jan.29_12_30_04.GMT.2013.jvspeijk.c4.snap.jpg'
p10
aS'http://argus-data.wldelft.nl/sites/jvspeijk/2013/c4/133_May.13/1368435605.Mon.May.13_09_00_05.GMT.2013.jvspeijk.c4.snap.jpg'
p11
aS'http://argus-data.wldelft.nl/sites/jvspeijk/2013/c4/233_Aug.21/1377079205.Wed.Aug.21_10_00_05.GMT.2013.jvspeijk.c4.snap.jpg'
p12
aS'http://argus-data.wldelft.nl/sites/jvspeijk/2013/c5/214_Aug.02/1375444806.Fri.Aug.02_12_00_06.GMT.2013.jvspeijk.c5.snap.jpg'
p13
aS'http://argus-data.wldelft.nl/sites/jvspeijk/2013/c5/196_Jul.15/1373875205.Mon.Jul.15_08_00_05.GMT.2013.jvspeijk.c5.snap.jpg'
p14
aS'http://argus-data.wldelft.nl/sites/jvspeijk/2013/c5/071_Mar.12/1363077005.Tue.Mar.12_08_30_05.GMT.2013.jvspeijk.c5.snap.jpg'
p15
aS'http://argus-data.wldelft.nl/sites/egmond/2013/c1/170_Jun.19/1371628801.Wed.Jun.19_08_00_01.GMT.2013.egmond.c1.snap.jpg'
p16
aS'http://argus-data.wldelft.nl/sites/egmond/2013/c1/153_Jun.02/1370176201.Sun.Jun.02_12_30_01.GMT.2013.egmond.c1.snap.jpg'
p17
aS'http://argus-data.wldelft.nl/sites/egmond/2013/c1/298_Oct.25/1382688002.Fri.Oct.25_08_00_02.GMT.2013.egmond.c1.snap.jpg'
p18
aS'http://argus-data.wldelft.nl/sites/egmond/2013/c2/226_Aug.14/1376490602.Wed.Aug.14_14_30_02.GMT.2013.egmond.c2.snap.jpg'
p19
aS'http://argus-data.wldelft.nl/sites/egmond/2013/c2/045_Feb.14/1360837803.Thu.Feb.14_10_30_03.GMT.2013.egmond.c2.snap.jpg'
p20
aS'http://argus-data.wldelft.nl/sites/egmond/2013/c2/054_Feb.23/1361622602.Sat.Feb.23_12_30_02.GMT.2013.egmond.c2.snap.jpg'
p21
aS'http://argus-data.wldelft.nl/sites/egmond/2013/c3/042_Feb.11/1360575003.Mon.Feb.11_09_30_03.GMT.2013.egmond.c3.snap.jpg'
p22
aS'http://argus-data.wldelft.nl/sites/egmond/2013/c3/008_Jan.08/1357642804.Tue.Jan.08_11_00_04.GMT.2013.egmond.c3.snap.jpg'
p23
aS'http://argus-data.wldelft.nl/sites/egmond/2013/c3/092_Apr.02/1364889603.Tue.Apr.02_08_00_03.GMT.2013.egmond.c3.snap.jpg'
p24
aS'http://argus-data.wldelft.nl/sites/egmond/2013/c4/057_Feb.26/1361885404.Tue.Feb.26_13_30_04.GMT.2013.egmond.c4.snap.jpg'
p25
aS'http://argus-data.wldelft.nl/sites/egmond/2013/c4/280_Oct.07/1381136405.Mon.Oct.07_09_00_05.GMT.2013.egmond.c4.snap.jpg'
p26
aS'http://argus-data.wldelft.nl/sites/egmond/2013/c4/095_Apr.05/1365159604.Fri.Apr.05_11_00_04.GMT.2013.egmond.c4.snap.jpg'
p27
aS'http://argus-data.wldelft.nl/sites/egmond/2013/c5/010_Jan.10/1357817406.Thu.Jan.10_11_30_06.GMT.2013.egmond.c5.snap.jpg'
p28
aS'http://argus-data.wldelft.nl/sites/egmond/2013/c5/069_Mar.10/1362925806.Sun.Mar.10_14_30_06.GMT.2013.egmond.c5.snap.jpg'
p29
aS'http://argus-data.wldelft.nl/sites/egmond/2013/c5/018_Jan.18/1358497806.Fri.Jan.18_08_30_06.GMT.2013.egmond.c5.snap.jpg'
p30
aS'http://argus-data.wldelft.nl/sites/kijkduin/2013/c1/324_Nov.20/1384934401.Wed.Nov.20_08_00_01.UTC.2013.kijkduin.c1.snap.jpg'
p31
aS'http://argus-data.wldelft.nl/sites/kijkduin/2013/c1/133_May.13/1368453601.Mon.May.13_14_00_01.UTC.2013.kijkduin.c1.snap.jpg'
p32
aS'http://argus-data.wldelft.nl/sites/kijkduin/2013/c1/281_Oct.08/1381237201.Tue.Oct.08_13_00_01.UTC.2013.kijkduin.c1.snap.jpg'
p33
aS'http://argus-data.wldelft.nl/sites/kijkduin/2013/c2/184_Jul.03/1372845603.Wed.Jul.03_10_00_03.UTC.2013.kijkduin.c2.snap.jpg'
p34
aS'http://argus-data.wldelft.nl/sites/kijkduin/2013/c2/214_Aug.02/1375453802.Fri.Aug.02_14_30_02.UTC.2013.kijkduin.c2.snap.jpg'
p35
aS'http://argus-data.wldelft.nl/sites/kijkduin/2013/c2/105_Apr.15/1366029002.Mon.Apr.15_12_30_02.UTC.2013.kijkduin.c2.snap.jpg'
p36
aS'http://argus-data.wldelft.nl/sites/kijkduin/2013/c3/024_Jan.24/1359014403.Thu.Jan.24_08_00_03.UTC.2013.kijkduin.c3.snap.jpg'
p37
aS'http://argus-data.wldelft.nl/sites/kijkduin/2013/c3/180_Jun.29/1372492803.Sat.Jun.29_08_00_03.UTC.2013.kijkduin.c3.snap.jpg'
p38
aS'http://argus-data.wldelft.nl/sites/kijkduin/2013/c3/036_Feb.05/1360053004.Tue.Feb.05_08_30_04.UTC.2013.kijkduin.c3.snap.jpg'
p39
aS'http://argus-data.wldelft.nl/sites/kijkduin/2013/c4/111_Apr.21/1366538405.Sun.Apr.21_10_00_05.UTC.2013.kijkduin.c4.snap.jpg'
p40
aS'http://argus-data.wldelft.nl/sites/kijkduin/2013/c4/240_Aug.28/1377696604.Wed.Aug.28_13_30_04.UTC.2013.kijkduin.c4.snap.jpg'
p41
aS'http://argus-data.wldelft.nl/sites/kijkduin/2013/c4/170_Jun.19/1371628804.Wed.Jun.19_08_00_04.UTC.2013.kijkduin.c4.snap.jpg'
p42
aS'http://argus-data.wldelft.nl/sites/kijkduin/2013/c5/135_May.15/1368610205.Wed.May.15_09_30_05.UTC.2013.kijkduin.c5.snap.jpg'
p43
aS'http://argus-data.wldelft.nl/sites/kijkduin/2013/c5/057_Feb.26/1361880005.Tue.Feb.26_12_00_05.UTC.2013.kijkduin.c5.snap.jpg'
p44
aS'http://argus-data.wldelft.nl/sites/kijkduin/2013/c5/213_Aug.01/1375345806.Thu.Aug.01_08_30_06.UTC.2013.kijkduin.c5.snap.jpg'
p45
aS'http://argus-data.wldelft.nl/sites/kijkduin/2013/c6/293_Oct.20/1382270406.Sun.Oct.20_12_00_06.UTC.2013.kijkduin.c6.snap.jpg'
p46
aS'http://argus-data.wldelft.nl/sites/kijkduin/2013/c6/190_Jul.09/1373376606.Tue.Jul.09_13_30_06.UTC.2013.kijkduin.c6.snap.jpg'
p47
aS'http://argus-data.wldelft.nl/sites/kijkduin/2013/c6/129_May.09/1368097206.Thu.May.09_11_00_06.UTC.2013.kijkduin.c6.snap.jpg'
p48
aS'http://argus-data.wldelft.nl/sites/zandmotor/2013/c1/291_Oct.18/1382095801.Fri.Oct.18_11_30_01.UTC.2013.zandmotor.c1.snap.jpg'
p49
aS'http://argus-data.wldelft.nl/sites/zandmotor/2013/c1/287_Oct.14/1381741201.Mon.Oct.14_09_00_01.UTC.2013.zandmotor.c1.snap.jpg'
p50
aS'http://argus-data.wldelft.nl/sites/zandmotor/2013/c1/184_Jul.03/1372842001.Wed.Jul.03_09_00_01.UTC.2013.zandmotor.c1.snap.jpg'
p51
aS'http://argus-data.wldelft.nl/sites/zandmotor/2013/c2/282_Oct.09/1381320002.Wed.Oct.09_12_00_02.UTC.2013.zandmotor.c2.snap.jpg'
p52
aS'http://argus-data.wldelft.nl/sites/zandmotor/2013/c2/206_Jul.25/1374760802.Thu.Jul.25_14_00_02.UTC.2013.zandmotor.c2.snap.jpg'
p53
aS'http://argus-data.wldelft.nl/sites/zandmotor/2013/c2/071_Mar.12/1363091402.Tue.Mar.12_12_30_02.UTC.2013.zandmotor.c2.snap.jpg'
p54
aS'http://argus-data.wldelft.nl/sites/zandmotor/2013/c3/054_Feb.23/1361608203.Sat.Feb.23_08_30_03.UTC.2013.zandmotor.c3.snap.jpg'
p55
aS'http://argus-data.wldelft.nl/sites/zandmotor/2013/c3/093_Apr.03/1364995804.Wed.Apr.03_13_30_04.UTC.2013.zandmotor.c3.snap.jpg'
p56
aS'http://argus-data.wldelft.nl/sites/zandmotor/2013/c3/198_Jul.17/1374069603.Wed.Jul.17_14_00_03.UTC.2013.zandmotor.c3.snap.jpg'
p57
aS'http://argus-data.wldelft.nl/sites/zandmotor/2013/c4/249_Sep.06/1378458005.Fri.Sep.06_09_00_05.UTC.2013.zandmotor.c4.snap.jpg'
p58
aS'http://argus-data.wldelft.nl/sites/zandmotor/2013/c4/225_Aug.13/1376380804.Tue.Aug.13_08_00_04.UTC.2013.zandmotor.c4.snap.jpg'
p59
aS'http://argus-data.wldelft.nl/sites/zandmotor/2013/c4/289_Oct.16/1381910405.Wed.Oct.16_08_00_05.UTC.2013.zandmotor.c4.snap.jpg'
p60
aS'http://argus-data.wldelft.nl/sites/zandmotor/2013/c5/072_Mar.13/1363163405.Wed.Mar.13_08_30_05.UTC.2013.zandmotor.c5.snap.jpg'
p61
aS'http://argus-data.wldelft.nl/sites/zandmotor/2013/c5/113_Apr.23/1366704006.Tue.Apr.23_08_00_06.UTC.2013.zandmotor.c5.snap.jpg'
p62
aS'http://argus-data.wldelft.nl/sites/zandmotor/2013/c5/120_Apr.30/1367312405.Tue.Apr.30_09_00_05.UTC.2013.zandmotor.c5.snap.jpg'
p63
aS'http://argus-data.wldelft.nl/sites/zandmotor/2013/c6/116_Apr.26/1366975806.Fri.Apr.26_11_30_06.UTC.2013.zandmotor.c6.snap.jpg'
p64
aS'http://argus-data.wldelft.nl/sites/zandmotor/2013/c6/149_May.29/1369830606.Wed.May.29_12_30_06.UTC.2013.zandmotor.c6.snap.jpg'
p65
aS'http://argus-data.wldelft.nl/sites/zandmotor/2013/c6/106_Apr.16/1366115406.Tue.Apr.16_12_30_06.UTC.2013.zandmotor.c6.snap.jpg'
p66
aS'http://argus-data.wldelft.nl/sites/zandmotor/2013/c7/166_Jun.15/1371297608.Sat.Jun.15_12_00_08.UTC.2013.zandmotor.c7.snap.jpg'
p67
aS'http://argus-data.wldelft.nl/sites/zandmotor/2013/c7/303_Oct.30/1383125407.Wed.Oct.30_09_30_07.UTC.2013.zandmotor.c7.snap.jpg'
p68
aS'http://argus-data.wldelft.nl/sites/zandmotor/2013/c7/157_Jun.06/1370505607.Thu.Jun.06_08_00_07.UTC.2013.zandmotor.c7.snap.jpg'
p69
aS'http://argus-data.wldelft.nl/sites/zandmotor/2013/c8/182_Jul.01/1372669208.Mon.Jul.01_09_00_08.UTC.2013.zandmotor.c8.snap.jpg'
p70
aS'http://argus-data.wldelft.nl/sites/zandmotor/2013/c8/112_Apr.22/1366624808.Mon.Apr.22_10_00_08.UTC.2013.zandmotor.c8.snap.jpg'
p71
aS'http://argus-data.wldelft.nl/sites/zandmotor/2013/c8/304_Oct.31/1383228009.Thu.Oct.31_14_00_09.UTC.2013.zandmotor.c8.snap.jpg'
p72
a.